target datalayout = "e-m:e-p270:32:32-p271:32:32-p272:64:64-i64:64-i128:128-f80:128-n8:16:32:64-S128"
target triple = "x86_64-pc-linux-gnu"

%"struct.llvm::SCEVDivision" = type { ptr, ptr, ptr, ptr, ptr, ptr }
%"class.llvm::ArrayRef" = type { ptr, i64 }
%"class.llvm::SCEVNAryExpr" = type { %"class.llvm::SCEV.base", ptr, i64 }
%"class.llvm::SCEV.base" = type <{ %"class.llvm::FoldingSetBase::Node", %"class.llvm::FoldingSetNodeIDRef", i16, i16, i16 }>
%"class.llvm::FoldingSetBase::Node" = type { ptr }
%"class.llvm::FoldingSetNodeIDRef" = type { ptr, i64 }
%"class.llvm::SCEV" = type <{ %"class.llvm::FoldingSetBase::Node", %"class.llvm::FoldingSetNodeIDRef", i16, i16, i16, [2 x i8] }>

@_ZN4llvm12SCEVDivisionC1ERNS_15ScalarEvolutionEPKNS_4SCEVES5_ = unnamed_addr alias void (ptr, ptr, ptr, ptr), ptr @_ZN4llvm12SCEVDivisionC2ERNS_15ScalarEvolutionEPKNS_4SCEVES5_

; Function Attrs: mustprogress nounwind uwtable
define linkonce_odr hidden noundef zeroext i16 @_ZNK4llvm4SCEV11getSCEVTypeEv(ptr noundef nonnull align 8 dereferenceable(30) %0) #0 comdat align 2 {
  %2 = alloca ptr, align 8
  store ptr %0, ptr %2, align 8
  %3 = load ptr, ptr %2, align 8
  %4 = getelementptr inbounds nuw %"class.llvm::SCEV", ptr %3, i32 0, i32 2
  %5 = load i16, ptr %4, align 8
  ret i16 %5
}

; Function Attrs: mustprogress nounwind uwtable
define linkonce_odr hidden noundef zeroext i1 @_ZN4llvm11SCEVMulExpr7classofEPKNS_4SCEVE(ptr noundef %0) #0 comdat align 2 {
  %2 = alloca ptr, align 8
  store ptr %0, ptr %2, align 8
  %3 = load ptr, ptr %2, align 8
  %4 = call noundef zeroext i16 @_ZNK4llvm4SCEV11getSCEVTypeEv(ptr noundef nonnull align 8 dereferenceable(30) %3)
  %5 = zext i16 %4 to i32
  %6 = icmp eq i32 %5, 6
  ret i1 %6
}

; Function Attrs: mustprogress nounwind uwtable
define linkonce_odr hidden noundef zeroext i1 @_ZN4llvm8isa_implINS_11SCEVMulExprENS_4SCEVEvE4doitERKS2_(ptr noundef nonnull align 8 dereferenceable(30) %0) #0 comdat align 2 {
  %2 = alloca ptr, align 8
  store ptr %0, ptr %2, align 8
  %3 = load ptr, ptr %2, align 8
  %4 = call noundef zeroext i1 @_ZN4llvm11SCEVMulExpr7classofEPKNS_4SCEVE(ptr noundef %3)
  ret i1 %4
}

; Function Attrs: mustprogress nounwind uwtable
define linkonce_odr hidden noundef zeroext i1 @_ZN4llvm11isa_impl_clINS_11SCEVMulExprEPKNS_4SCEVEE4doitES4_(ptr noundef %0) #0 comdat align 2 {
  %2 = alloca ptr, align 8
  store ptr %0, ptr %2, align 8
  %3 = load ptr, ptr %2, align 8
  %4 = call noundef zeroext i1 @_ZN4llvm8isa_implINS_11SCEVMulExprENS_4SCEVEvE4doitERKS2_(ptr noundef nonnull align 8 dereferenceable(30) %3)
  ret i1 %4
}

; Function Attrs: mustprogress nounwind uwtable
define linkonce_odr hidden noundef nonnull align 8 dereferenceable(8) ptr @_ZN4llvm13simplify_typeIPKNS_4SCEVEE18getSimplifiedValueERS3_(ptr noundef nonnull align 8 dereferenceable(8) %0) #0 comdat align 2 {
  %2 = alloca ptr, align 8
  store ptr %0, ptr %2, align 8
  %3 = load ptr, ptr %2, align 8
  ret ptr %3
}

; Function Attrs: mustprogress nounwind uwtable
define linkonce_odr hidden noundef zeroext i1 @_ZN4llvm13isa_impl_wrapINS_11SCEVMulExprEPKNS_4SCEVES4_E4doitERKS4_(ptr noundef nonnull align 8 dereferenceable(8) %0) #0 comdat align 2 {
  %2 = alloca ptr, align 8
  store ptr %0, ptr %2, align 8
  %3 = load ptr, ptr %2, align 8
  %4 = load ptr, ptr %3, align 8
  %5 = call noundef zeroext i1 @_ZN4llvm11isa_impl_clINS_11SCEVMulExprEPKNS_4SCEVEE4doitES4_(ptr noundef %4)
  ret i1 %5
}

; Function Attrs: mustprogress nounwind uwtable
define linkonce_odr hidden noundef ptr @_ZN4llvm13simplify_typeIKPKNS_4SCEVEE18getSimplifiedValueERS4_(ptr noundef nonnull align 8 dereferenceable(8) %0) #0 comdat align 2 {
  %2 = alloca ptr, align 8
  store ptr %0, ptr %2, align 8
  %3 = load ptr, ptr %2, align 8
  %4 = call noundef nonnull align 8 dereferenceable(8) ptr @_ZN4llvm13simplify_typeIPKNS_4SCEVEE18getSimplifiedValueERS3_(ptr noundef nonnull align 8 dereferenceable(8) %3)
  %5 = load ptr, ptr %4, align 8
  ret ptr %5
}

; Function Attrs: mustprogress nounwind uwtable
define linkonce_odr hidden noundef ptr @_ZN4llvm16cast_convert_valINS_11SCEVMulExprEPKNS_4SCEVES4_E4doitES4_(ptr noundef %0) #0 comdat align 2 {
  %2 = alloca ptr, align 8
  store ptr %0, ptr %2, align 8
  %3 = load ptr, ptr %2, align 8
  ret ptr %3
}

; Function Attrs: mustprogress nounwind uwtable
define linkonce_odr hidden noundef zeroext i1 @_ZN4llvm13isa_impl_wrapINS_11SCEVMulExprEKPKNS_4SCEVES4_E4doitERS5_(ptr noundef nonnull align 8 dereferenceable(8) %0) #0 comdat align 2 {
  %2 = alloca ptr, align 8
  %3 = alloca ptr, align 8
  store ptr %0, ptr %2, align 8
  %4 = load ptr, ptr %2, align 8
  %5 = call noundef ptr @_ZN4llvm13simplify_typeIKPKNS_4SCEVEE18getSimplifiedValueERS4_(ptr noundef nonnull align 8 dereferenceable(8) %4)
  store ptr %5, ptr %3, align 8
  %6 = call noundef zeroext i1 @_ZN4llvm13isa_impl_wrapINS_11SCEVMulExprEPKNS_4SCEVES4_E4doitERKS4_(ptr noundef nonnull align 8 dereferenceable(8) %3)
  ret i1 %6
}

; Function Attrs: mustprogress nounwind uwtable
define linkonce_odr hidden noundef ptr @_ZN4llvm8CastInfoINS_11SCEVMulExprEPKNS_4SCEVEvE6doCastERKS4_(ptr noundef nonnull align 8 dereferenceable(8) %0) #0 comdat align 2 {
  %2 = alloca ptr, align 8
  store ptr %0, ptr %2, align 8
  %3 = load ptr, ptr %2, align 8
  %4 = load ptr, ptr %3, align 8
  %5 = call noundef ptr @_ZN4llvm16cast_convert_valINS_11SCEVMulExprEPKNS_4SCEVES4_E4doitES4_(ptr noundef %4)
  ret ptr %5
}

; Function Attrs: mustprogress nounwind uwtable
define linkonce_odr hidden noundef ptr @_ZN4llvm8CastInfoINS_11SCEVMulExprEPKNS_4SCEVEvE10castFailedEv() #0 comdat align 2 {
  ret ptr null
}

; Function Attrs: mustprogress nounwind uwtable
define linkonce_odr hidden noundef zeroext i1 @_ZN4llvm14CastIsPossibleINS_11SCEVMulExprEPKNS_4SCEVEvE10isPossibleERKS4_(ptr noundef nonnull align 8 dereferenceable(8) %0) #0 comdat align 2 {
  %2 = alloca ptr, align 8
  store ptr %0, ptr %2, align 8
  %3 = load ptr, ptr %2, align 8
  %4 = call noundef zeroext i1 @_ZN4llvm13isa_impl_wrapINS_11SCEVMulExprEKPKNS_4SCEVES4_E4doitERS5_(ptr noundef nonnull align 8 dereferenceable(8) %3)
  ret i1 %4
}

; Function Attrs: mustprogress nounwind uwtable
define linkonce_odr hidden void @_ZN4llvm8ArrayRefIPKNS_4SCEVEEC2EPKS3_m(ptr noundef nonnull align 8 dereferenceable(16) %0, ptr noundef %1, i64 noundef %2) unnamed_addr #0 comdat align 2 {
  %4 = alloca ptr, align 8
  %5 = alloca ptr, align 8
  %6 = alloca i64, align 8
  store ptr %0, ptr %4, align 8
  store ptr %1, ptr %5, align 8
  store i64 %2, ptr %6, align 8
  %7 = load ptr, ptr %4, align 8
  %8 = getelementptr inbounds nuw %"class.llvm::ArrayRef", ptr %7, i32 0, i32 0
  %9 = load ptr, ptr %5, align 8
  store ptr %9, ptr %8, align 8
  %10 = getelementptr inbounds nuw %"class.llvm::ArrayRef", ptr %7, i32 0, i32 1
  %11 = load i64, ptr %6, align 8
  store i64 %11, ptr %10, align 8
  ret void
}

; Function Attrs: mustprogress nounwind uwtable
define linkonce_odr hidden noundef ptr @_ZN4llvm8CastInfoINS_11SCEVMulExprEPKNS_4SCEVEvE16doCastIfPossibleERKS4_(ptr noundef nonnull align 8 dereferenceable(8) %0) #0 comdat align 2 {
  %2 = alloca ptr, align 8
  %3 = alloca ptr, align 8
  store ptr %0, ptr %3, align 8
  %4 = load ptr, ptr %3, align 8
  %5 = call noundef zeroext i1 @_ZN4llvm14CastIsPossibleINS_11SCEVMulExprEPKNS_4SCEVEvE10isPossibleERKS4_(ptr noundef nonnull align 8 dereferenceable(8) %4)
  br i1 %5, label %8, label %6

6:                                                ; preds = %1
  %7 = call noundef ptr @_ZN4llvm8CastInfoINS_11SCEVMulExprEPKNS_4SCEVEvE10castFailedEv()
  store ptr %7, ptr %2, align 8
  br label %11

8:                                                ; preds = %1
  %9 = load ptr, ptr %3, align 8
  %10 = call noundef ptr @_ZN4llvm8CastInfoINS_11SCEVMulExprEPKNS_4SCEVEvE6doCastERKS4_(ptr noundef nonnull align 8 dereferenceable(8) %9)
  store ptr %10, ptr %2, align 8
  br label %11

11:                                               ; preds = %8, %6
  %12 = load ptr, ptr %2, align 8
  ret ptr %12
}

; Function Attrs: mustprogress nounwind uwtable
define linkonce_odr hidden noundef ptr @_ZNK4llvm8ArrayRefIPKNS_4SCEVEE3endEv(ptr noundef nonnull align 8 dereferenceable(16) %0) #0 comdat align 2 {
  %2 = alloca ptr, align 8
  store ptr %0, ptr %2, align 8
  %3 = load ptr, ptr %2, align 8
  %4 = getelementptr inbounds nuw %"class.llvm::ArrayRef", ptr %3, i32 0, i32 0
  %5 = load ptr, ptr %4, align 8
  %6 = getelementptr inbounds nuw %"class.llvm::ArrayRef", ptr %3, i32 0, i32 1
  %7 = load i64, ptr %6, align 8
  %8 = getelementptr inbounds ptr, ptr %5, i64 %7
  ret ptr %8
}

; Function Attrs: mustprogress nounwind uwtable
define linkonce_odr hidden noundef ptr @_ZNK4llvm8ArrayRefIPKNS_4SCEVEE5beginEv(ptr noundef nonnull align 8 dereferenceable(16) %0) #0 comdat align 2 {
  %2 = alloca ptr, align 8
  store ptr %0, ptr %2, align 8
  %3 = load ptr, ptr %2, align 8
  %4 = getelementptr inbounds nuw %"class.llvm::ArrayRef", ptr %3, i32 0, i32 0
  %5 = load ptr, ptr %4, align 8
  ret ptr %5
}

; Function Attrs: mustprogress nounwind uwtable
define linkonce_odr hidden { ptr, i64 } @_ZNK4llvm12SCEVNAryExpr8operandsEv(ptr noundef nonnull align 8 dereferenceable(48) %0) #0 comdat align 2 {
  %2 = alloca %"class.llvm::ArrayRef", align 8
  %3 = alloca ptr, align 8
  store ptr %0, ptr %3, align 8
  %4 = load ptr, ptr %3, align 8
  %5 = getelementptr inbounds nuw %"class.llvm::SCEVNAryExpr", ptr %4, i32 0, i32 1
  %6 = load ptr, ptr %5, align 8
  %7 = getelementptr inbounds nuw %"class.llvm::SCEVNAryExpr", ptr %4, i32 0, i32 2
  %8 = load i64, ptr %7, align 8
  call void @_ZN4llvm8ArrayRefIPKNS_4SCEVEEC2EPKS3_m(ptr noundef nonnull align 8 dereferenceable(16) %2, ptr noundef %6, i64 noundef %8)
  %9 = load { ptr, i64 }, ptr %2, align 8
  ret { ptr, i64 } %9
}

; Function Attrs: mustprogress nounwind uwtable
define linkonce_odr hidden noundef ptr @_ZN4llvm8dyn_castINS_11SCEVMulExprEKNS_4SCEVEEEDcPT0_(ptr noundef %0) #0 comdat {
  %2 = alloca ptr, align 8
  store ptr %0, ptr %2, align 8
  %3 = call noundef ptr @_ZN4llvm8CastInfoINS_11SCEVMulExprEPKNS_4SCEVEvE16doCastIfPossibleERKS4_(ptr noundef nonnull align 8 dereferenceable(8) %2)
  ret ptr %3
}

; Function Attrs: mustprogress nounwind uwtable
define dso_local void @_ZN4llvm12SCEVDivision6divideERNS_15ScalarEvolutionEPKNS_4SCEVES5_PS5_S6_(ptr noundef nonnull align 8 dereferenceable(1392) %0, ptr noundef %1, ptr noundef %2, ptr noundef %3, ptr noundef %4) #0 align 2 {
  %6 = alloca ptr, align 8
  %7 = alloca ptr, align 8
  %8 = alloca ptr, align 8
  %9 = alloca ptr, align 8
  %10 = alloca ptr, align 8
  %11 = alloca %"struct.llvm::SCEVDivision", align 8
  %12 = alloca ptr, align 8
  %13 = alloca ptr, align 8
  %14 = alloca ptr, align 8
  %15 = alloca ptr, align 8
  %16 = alloca %"class.llvm::ArrayRef", align 8
  %17 = alloca ptr, align 8
  %18 = alloca ptr, align 8
  %19 = alloca ptr, align 8
  store ptr %0, ptr %6, align 8
  store ptr %1, ptr %7, align 8
  store ptr %2, ptr %8, align 8
  store ptr %3, ptr %9, align 8
  store ptr %4, ptr %10, align 8
  %20 = load ptr, ptr %6, align 8
  %21 = load ptr, ptr %7, align 8
  %22 = load ptr, ptr %8, align 8
  call void @_ZN4llvm12SCEVDivisionC1ERNS_15ScalarEvolutionEPKNS_4SCEVES5_(ptr noundef nonnull align 8 dereferenceable(48) %11, ptr noundef nonnull align 8 dereferenceable(1392) %20, ptr noundef %21, ptr noundef %22)
  %23 = load ptr, ptr %7, align 8
  %24 = load ptr, ptr %8, align 8
  %25 = icmp eq ptr %23, %24
  br i1 %25, label %26, label %33

26:                                               ; preds = %5
  %27 = getelementptr inbounds nuw %"struct.llvm::SCEVDivision", ptr %11, i32 0, i32 5
  %28 = load ptr, ptr %27, align 8
  %29 = load ptr, ptr %9, align 8
  store ptr %28, ptr %29, align 8
  %30 = getelementptr inbounds nuw %"struct.llvm::SCEVDivision", ptr %11, i32 0, i32 4
  %31 = load ptr, ptr %30, align 8
  %32 = load ptr, ptr %10, align 8
  store ptr %31, ptr %32, align 8
  br label %107

33:                                               ; preds = %5
  %34 = load ptr, ptr %7, align 8
  %35 = call noundef zeroext i1 @_ZNK4llvm4SCEV6isZeroEv(ptr noundef nonnull align 8 dereferenceable(30) %34)
  br i1 %35, label %36, label %43

36:                                               ; preds = %33
  %37 = getelementptr inbounds nuw %"struct.llvm::SCEVDivision", ptr %11, i32 0, i32 4
  %38 = load ptr, ptr %37, align 8
  %39 = load ptr, ptr %9, align 8
  store ptr %38, ptr %39, align 8
  %40 = getelementptr inbounds nuw %"struct.llvm::SCEVDivision", ptr %11, i32 0, i32 4
  %41 = load ptr, ptr %40, align 8
  %42 = load ptr, ptr %10, align 8
  store ptr %41, ptr %42, align 8
  br label %107

43:                                               ; preds = %33
  %44 = load ptr, ptr %8, align 8
  %45 = call noundef zeroext i1 @_ZNK4llvm4SCEV5isOneEv(ptr noundef nonnull align 8 dereferenceable(30) %44)
  br i1 %45, label %46, label %52

46:                                               ; preds = %43
  %47 = load ptr, ptr %7, align 8
  %48 = load ptr, ptr %9, align 8
  store ptr %47, ptr %48, align 8
  %49 = getelementptr inbounds nuw %"struct.llvm::SCEVDivision", ptr %11, i32 0, i32 4
  %50 = load ptr, ptr %49, align 8
  %51 = load ptr, ptr %10, align 8
  store ptr %50, ptr %51, align 8
  br label %107

52:                                               ; preds = %43
  %53 = load ptr, ptr %8, align 8
  %54 = call noundef ptr @_ZN4llvm8dyn_castINS_11SCEVMulExprEKNS_4SCEVEEEDcPT0_(ptr noundef %53)
  store ptr %54, ptr %12, align 8
  %55 = load ptr, ptr %12, align 8
  %56 = icmp ne ptr %55, null
  br i1 %56, label %57, label %99

57:                                               ; preds = %52
  %58 = load ptr, ptr %7, align 8
  %59 = load ptr, ptr %9, align 8
  store ptr %58, ptr %59, align 8
  %60 = load ptr, ptr %12, align 8
  %61 = call { ptr, i64 } @_ZNK4llvm12SCEVNAryExpr8operandsEv(ptr noundef nonnull align 8 dereferenceable(48) %60)
  %62 = getelementptr inbounds nuw { ptr, i64 }, ptr %16, i32 0, i32 0
  %63 = extractvalue { ptr, i64 } %61, 0
  store ptr %63, ptr %62, align 8
  %64 = getelementptr inbounds nuw { ptr, i64 }, ptr %16, i32 0, i32 1
  %65 = extractvalue { ptr, i64 } %61, 1
  store i64 %65, ptr %64, align 8
  store ptr %16, ptr %15, align 8
  %66 = load ptr, ptr %15, align 8
  %67 = call noundef ptr @_ZNK4llvm8ArrayRefIPKNS_4SCEVEE5beginEv(ptr noundef nonnull align 8 dereferenceable(16) %66)
  store ptr %67, ptr %17, align 8
  %68 = load ptr, ptr %15, align 8
  %69 = call noundef ptr @_ZNK4llvm8ArrayRefIPKNS_4SCEVEE3endEv(ptr noundef nonnull align 8 dereferenceable(16) %68)
  store ptr %69, ptr %18, align 8
  br label %70

70:                                               ; preds = %92, %57
  %71 = load ptr, ptr %17, align 8
  %72 = load ptr, ptr %18, align 8
  %73 = icmp ne ptr %71, %72
  br i1 %73, label %74, label %95

74:                                               ; preds = %70
  %75 = load ptr, ptr %17, align 8
  %76 = load ptr, ptr %75, align 8
  store ptr %76, ptr %19, align 8
  %77 = load ptr, ptr %6, align 8
  %78 = load ptr, ptr %9, align 8
  %79 = load ptr, ptr %78, align 8
  %80 = load ptr, ptr %19, align 8
  call void @_ZN4llvm12SCEVDivision6divideERNS_15ScalarEvolutionEPKNS_4SCEVES5_PS5_S6_(ptr noundef nonnull align 8 dereferenceable(1392) %77, ptr noundef %79, ptr noundef %80, ptr noundef %13, ptr noundef %14)
  %81 = load ptr, ptr %13, align 8
  %82 = load ptr, ptr %9, align 8
  store ptr %81, ptr %82, align 8
  %83 = load ptr, ptr %14, align 8
  %84 = call noundef zeroext i1 @_ZNK4llvm4SCEV6isZeroEv(ptr noundef nonnull align 8 dereferenceable(30) %83)
  br i1 %84, label %91, label %85

85:                                               ; preds = %74
  %86 = getelementptr inbounds nuw %"struct.llvm::SCEVDivision", ptr %11, i32 0, i32 4
  %87 = load ptr, ptr %86, align 8
  %88 = load ptr, ptr %9, align 8
  store ptr %87, ptr %88, align 8
  %89 = load ptr, ptr %7, align 8
  %90 = load ptr, ptr %10, align 8
  store ptr %89, ptr %90, align 8
  br label %107

91:                                               ; preds = %74
  br label %92

92:                                               ; preds = %91
  %93 = load ptr, ptr %17, align 8
  %94 = getelementptr inbounds ptr, ptr %93, i32 1
  store ptr %94, ptr %17, align 8
  br label %70

95:                                               ; preds = %70
  %96 = getelementptr inbounds nuw %"struct.llvm::SCEVDivision", ptr %11, i32 0, i32 4
  %97 = load ptr, ptr %96, align 8
  %98 = load ptr, ptr %10, align 8
  store ptr %97, ptr %98, align 8
  br label %107

99:                                               ; preds = %52
  %100 = load ptr, ptr %7, align 8
  call void @_ZN4llvm11SCEVVisitorINS_12SCEVDivisionEvE5visitEPKNS_4SCEVE(ptr noundef nonnull align 1 dereferenceable(1) %11, ptr noundef %100)
  %101 = getelementptr inbounds nuw %"struct.llvm::SCEVDivision", ptr %11, i32 0, i32 2
  %102 = load ptr, ptr %101, align 8
  %103 = load ptr, ptr %9, align 8
  store ptr %102, ptr %103, align 8
  %104 = getelementptr inbounds nuw %"struct.llvm::SCEVDivision", ptr %11, i32 0, i32 3
  %105 = load ptr, ptr %104, align 8
  %106 = load ptr, ptr %10, align 8
  store ptr %105, ptr %106, align 8
  br label %107

107:                                              ; preds = %99, %95, %85, %46, %36, %26
  ret void
}