; Function Attrs: mustprogress nounwind uwtable
define dso_local void @_ZN4llvm12SCEVDivision6divideERNS_15ScalarEvolutionEPKNS_4SCEVES5_PS5_S6_(ptr noundef nonnull align 8 dereferenceable(1392) %0, ptr noundef %1, ptr noundef %2, ptr noundef captures(none) initializes((0, 8)) %3, ptr noundef writeonly captures(none) %4) local_unnamed_addr #0 align 2 {
  %6 = alloca %"struct.llvm::SCEVDivision", align 8
  %7 = alloca ptr, align 8
  %8 = alloca ptr, align 8
  call void @_ZN4llvm12SCEVDivisionC1ERNS_15ScalarEvolutionEPKNS_4SCEVES5_(ptr noundef nonnull align 8 dereferenceable(48) %6, ptr noundef nonnull align 8 dereferenceable(1392) %0, ptr noundef %1, ptr noundef %2) #10
  %9 = icmp eq ptr %1, %2
  br i1 %9, label %10, label %15

10:                                               ; preds = %5
  %11 = getelementptr inbounds nuw i8, ptr %6, i64 40
  %12 = load ptr, ptr %11, align 8
  store ptr %12, ptr %3, align 8
  %13 = getelementptr inbounds nuw i8, ptr %6, i64 32
  %14 = load ptr, ptr %13, align 8
  br label %51

15:                                               ; preds = %5
  %16 = call noundef zeroext i1 @_ZNK4llvm4SCEV6isZeroEv(ptr noundef nonnull align 8 dereferenceable(30) %1) #10
  br i1 %16, label %17, label %20

17:                                               ; preds = %15
  %18 = getelementptr inbounds nuw i8, ptr %6, i64 32
  %19 = load ptr, ptr %18, align 8
  store ptr %19, ptr %3, align 8
  br label %51

20:                                               ; preds = %15
  %21 = call noundef zeroext i1 @_ZNK4llvm4SCEV5isOneEv(ptr noundef nonnull align 8 dereferenceable(30) %2) #10
  br i1 %21, label %22, label %25

22:                                               ; preds = %20
  store ptr %1, ptr %3, align 8
  %23 = getelementptr inbounds nuw i8, ptr %6, i64 32
  %24 = load ptr, ptr %23, align 8
  br label %51

25:                                               ; preds = %20
  %26 = getelementptr inbounds nuw i8, ptr %2, i64 24
  %27 = load i16, ptr %26, align 8
  %.not = icmp eq i16 %27, 6
  br i1 %.not, label %28, label %46

28:                                               ; preds = %25
  store ptr %1, ptr %3, align 8
  %29 = getelementptr inbounds nuw i8, ptr %2, i64 32
  %30 = load ptr, ptr %29, align 8
  %31 = getelementptr inbounds nuw i8, ptr %2, i64 40
  %32 = load i64, ptr %31, align 8
  %33 = getelementptr inbounds ptr, ptr %30, i64 %32
  %.not3942 = icmp eq i64 %32, 0
  br i1 %.not3942, label %._crit_edge, label %.lr.ph

34:                                               ; preds = %.lr.ph
  %35 = getelementptr inbounds nuw i8, ptr %.043, i64 8
  %.not39 = icmp eq ptr %35, %33
  br i1 %.not39, label %._crit_edge, label %.lr.ph

.lr.ph:                                           ; preds = %28, %34
  %.043 = phi ptr [ %35, %34 ], [ %30, %28 ]
  %36 = load ptr, ptr %.043, align 8
  %37 = load ptr, ptr %3, align 8
  call void @_ZN4llvm12SCEVDivision6divideERNS_15ScalarEvolutionEPKNS_4SCEVES5_PS5_S6_(ptr noundef nonnull align 8 dereferenceable(1392) %0, ptr noundef %37, ptr noundef %36, ptr noundef nonnull %7, ptr noundef nonnull %8)
  %38 = load ptr, ptr %7, align 8
  store ptr %38, ptr %3, align 8
  %39 = load ptr, ptr %8, align 8
  %40 = call noundef zeroext i1 @_ZNK4llvm4SCEV6isZeroEv(ptr noundef nonnull align 8 dereferenceable(30) %39) #10
  br i1 %40, label %34, label %41

41:                                               ; preds = %.lr.ph
  %42 = getelementptr inbounds nuw i8, ptr %6, i64 32
  %43 = load ptr, ptr %42, align 8
  store ptr %43, ptr %3, align 8
  br label %51

._crit_edge:                                      ; preds = %34, %28
  %44 = getelementptr inbounds nuw i8, ptr %6, i64 32
  %45 = load ptr, ptr %44, align 8
  br label %51

46:                                               ; preds = %25
  call void @_ZN4llvm11SCEVVisitorINS_12SCEVDivisionEvE5visitEPKNS_4SCEVE(ptr noundef nonnull align 1 dereferenceable(1) %6, ptr noundef nonnull %1)
  %47 = getelementptr inbounds nuw i8, ptr %6, i64 16
  %48 = load ptr, ptr %47, align 8
  store ptr %48, ptr %3, align 8
  %49 = getelementptr inbounds nuw i8, ptr %6, i64 24
  %50 = load ptr, ptr %49, align 8
  br label %51

51:                                               ; preds = %46, %._crit_edge, %41, %22, %17, %10
  %.sink = phi ptr [ %50, %46 ], [ %45, %._crit_edge ], [ %1, %41 ], [ %24, %22 ], [ %19, %17 ], [ %14, %10 ]
  store ptr %.sink, ptr %4, align 8
  ret void
}